target datalayout = "e-m:e-p270:32:32-p271:32:32-p272:64:64-i64:64-i128:128-f80:128-n8:16:32:64-S128"
target triple = "x86_64-pc-linux-gnu"

%struct.stbhw_tile = type { i8, i8, i8, i8, i8, i8, [1 x i8] }

@stbhw_error = global ptr null, align 8
@.str.1 = private unnamed_addr constant [40 x i8] c"couldn't find tile matching constraints\00", align 1

; Function Attrs: nounwind uwtable
define ptr @stbhw__choose_tile(ptr noundef %0, i32 noundef %1, ptr noundef %2, ptr noundef %3, ptr noundef %4, ptr noundef %5, ptr noundef %6, ptr noundef %7, ptr noundef %8) #0 {
  %10 = alloca ptr, align 8
  %11 = alloca ptr, align 8
  %12 = alloca i32, align 4
  %13 = alloca ptr, align 8
  %14 = alloca ptr, align 8
  %15 = alloca ptr, align 8
  %16 = alloca ptr, align 8
  %17 = alloca ptr, align 8
  %18 = alloca ptr, align 8
  %19 = alloca ptr, align 8
  %20 = alloca i32, align 4
  %21 = alloca i32, align 4
  %22 = alloca i32, align 4
  %23 = alloca i32, align 4
  %24 = alloca ptr, align 8
  %25 = alloca i32, align 4
  store ptr %0, ptr %11, align 8, !tbaa !34
  store i32 %1, ptr %12, align 4, !tbaa !10
  store ptr %2, ptr %13, align 8, !tbaa !3
  store ptr %3, ptr %14, align 8, !tbaa !3
  store ptr %4, ptr %15, align 8, !tbaa !3
  store ptr %5, ptr %16, align 8, !tbaa !3
  store ptr %6, ptr %17, align 8, !tbaa !3
  store ptr %7, ptr %18, align 8, !tbaa !3
  store ptr %8, ptr %19, align 8, !tbaa !62
  call void @llvm.lifetime.start.p0(i64 4, ptr %20) #6
  call void @llvm.lifetime.start.p0(i64 4, ptr %21) #6
  call void @llvm.lifetime.start.p0(i64 4, ptr %22) #6
  store i32 1073741824, ptr %22, align 4, !tbaa !10
  call void @llvm.lifetime.start.p0(i64 4, ptr %23) #6
  store i32 0, ptr %23, align 4, !tbaa !10
  br label %26

26:                                               ; preds = %186, %9
  %27 = load i32, ptr %23, align 4, !tbaa !10
  %28 = icmp slt i32 %27, 2
  br i1 %28, label %29, label %189

29:                                               ; preds = %26
  store i32 0, ptr %21, align 4, !tbaa !10
  store i32 0, ptr %20, align 4, !tbaa !10
  br label %30

30:                                               ; preds = %174, %29
  %31 = load i32, ptr %20, align 4, !tbaa !10
  %32 = load i32, ptr %12, align 4, !tbaa !10
  %33 = icmp slt i32 %31, %32
  br i1 %33, label %34, label %177

34:                                               ; preds = %30
  call void @llvm.lifetime.start.p0(i64 8, ptr %24) #6
  %35 = load ptr, ptr %11, align 8, !tbaa !34
  %36 = load i32, ptr %20, align 4, !tbaa !10
  %37 = sext i32 %36 to i64
  %38 = getelementptr inbounds ptr, ptr %35, i64 %37
  %39 = load ptr, ptr %38, align 8, !tbaa !34
  store ptr %39, ptr %24, align 8, !tbaa !34
  %40 = load ptr, ptr %13, align 8, !tbaa !3
  %41 = load i8, ptr %40, align 1, !tbaa !64
  %42 = sext i8 %41 to i32
  %43 = icmp slt i32 %42, 0
  br i1 %43, label %53, label %44

44:                                               ; preds = %34
  %45 = load ptr, ptr %13, align 8, !tbaa !3
  %46 = load i8, ptr %45, align 1, !tbaa !64
  %47 = sext i8 %46 to i32
  %48 = load ptr, ptr %24, align 8, !tbaa !34
  %49 = getelementptr inbounds nuw %struct.stbhw_tile, ptr %48, i32 0, i32 0
  %50 = load i8, ptr %49, align 1, !tbaa !65
  %51 = sext i8 %50 to i32
  %52 = icmp eq i32 %47, %51
  br i1 %52, label %53, label %170

53:                                               ; preds = %44, %34
  %54 = load ptr, ptr %14, align 8, !tbaa !3
  %55 = load i8, ptr %54, align 1, !tbaa !64
  %56 = sext i8 %55 to i32
  %57 = icmp slt i32 %56, 0
  br i1 %57, label %67, label %58

58:                                               ; preds = %53
  %59 = load ptr, ptr %14, align 8, !tbaa !3
  %60 = load i8, ptr %59, align 1, !tbaa !64
  %61 = sext i8 %60 to i32
  %62 = load ptr, ptr %24, align 8, !tbaa !34
  %63 = getelementptr inbounds nuw %struct.stbhw_tile, ptr %62, i32 0, i32 1
  %64 = load i8, ptr %63, align 1, !tbaa !67
  %65 = sext i8 %64 to i32
  %66 = icmp eq i32 %61, %65
  br i1 %66, label %67, label %170

67:                                               ; preds = %58, %53
  %68 = load ptr, ptr %15, align 8, !tbaa !3
  %69 = load i8, ptr %68, align 1, !tbaa !64
  %70 = sext i8 %69 to i32
  %71 = icmp slt i32 %70, 0
  br i1 %71, label %81, label %72

72:                                               ; preds = %67
  %73 = load ptr, ptr %15, align 8, !tbaa !3
  %74 = load i8, ptr %73, align 1, !tbaa !64
  %75 = sext i8 %74 to i32
  %76 = load ptr, ptr %24, align 8, !tbaa !34
  %77 = getelementptr inbounds nuw %struct.stbhw_tile, ptr %76, i32 0, i32 2
  %78 = load i8, ptr %77, align 1, !tbaa !68
  %79 = sext i8 %78 to i32
  %80 = icmp eq i32 %75, %79
  br i1 %80, label %81, label %170

81:                                               ; preds = %72, %67
  %82 = load ptr, ptr %16, align 8, !tbaa !3
  %83 = load i8, ptr %82, align 1, !tbaa !64
  %84 = sext i8 %83 to i32
  %85 = icmp slt i32 %84, 0
  br i1 %85, label %95, label %86

86:                                               ; preds = %81
  %87 = load ptr, ptr %16, align 8, !tbaa !3
  %88 = load i8, ptr %87, align 1, !tbaa !64
  %89 = sext i8 %88 to i32
  %90 = load ptr, ptr %24, align 8, !tbaa !34
  %91 = getelementptr inbounds nuw %struct.stbhw_tile, ptr %90, i32 0, i32 3
  %92 = load i8, ptr %91, align 1, !tbaa !69
  %93 = sext i8 %92 to i32
  %94 = icmp eq i32 %89, %93
  br i1 %94, label %95, label %170

95:                                               ; preds = %86, %81
  %96 = load ptr, ptr %17, align 8, !tbaa !3
  %97 = load i8, ptr %96, align 1, !tbaa !64
  %98 = sext i8 %97 to i32
  %99 = icmp slt i32 %98, 0
  br i1 %99, label %109, label %100

100:                                              ; preds = %95
  %101 = load ptr, ptr %17, align 8, !tbaa !3
  %102 = load i8, ptr %101, align 1, !tbaa !64
  %103 = sext i8 %102 to i32
  %104 = load ptr, ptr %24, align 8, !tbaa !34
  %105 = getelementptr inbounds nuw %struct.stbhw_tile, ptr %104, i32 0, i32 4
  %106 = load i8, ptr %105, align 1, !tbaa !70
  %107 = sext i8 %106 to i32
  %108 = icmp eq i32 %103, %107
  br i1 %108, label %109, label %170

109:                                              ; preds = %100, %95
  %110 = load ptr, ptr %18, align 8, !tbaa !3
  %111 = load i8, ptr %110, align 1, !tbaa !64
  %112 = sext i8 %111 to i32
  %113 = icmp slt i32 %112, 0
  br i1 %113, label %123, label %114

114:                                              ; preds = %109
  %115 = load ptr, ptr %18, align 8, !tbaa !3
  %116 = load i8, ptr %115, align 1, !tbaa !64
  %117 = sext i8 %116 to i32
  %118 = load ptr, ptr %24, align 8, !tbaa !34
  %119 = getelementptr inbounds nuw %struct.stbhw_tile, ptr %118, i32 0, i32 5
  %120 = load i8, ptr %119, align 1, !tbaa !71
  %121 = sext i8 %120 to i32
  %122 = icmp eq i32 %117, %121
  br i1 %122, label %123, label %170

123:                                              ; preds = %114, %109
  %124 = load ptr, ptr %19, align 8, !tbaa !62
  %125 = icmp ne ptr %124, null
  br i1 %125, label %126, label %136

126:                                              ; preds = %123
  %127 = load ptr, ptr %19, align 8, !tbaa !62
  %128 = getelementptr inbounds ptr, ptr %127, i64 0
  %129 = load ptr, ptr %128, align 8, !tbaa !35
  %130 = load i32, ptr %20, align 4, !tbaa !10
  %131 = sext i32 %130 to i64
  %132 = getelementptr inbounds i32, ptr %129, i64 %131
  %133 = load i32, ptr %132, align 4, !tbaa !10
  %134 = load i32, ptr %21, align 4, !tbaa !10
  %135 = add nsw i32 %134, %133
  store i32 %135, ptr %21, align 4, !tbaa !10
  br label %139

136:                                              ; preds = %123
  %137 = load i32, ptr %21, align 4, !tbaa !10
  %138 = add nsw i32 %137, 1
  store i32 %138, ptr %21, align 4, !tbaa !10
  br label %139

139:                                              ; preds = %136, %126
  %140 = load i32, ptr %21, align 4, !tbaa !10
  %141 = load i32, ptr %22, align 4, !tbaa !10
  %142 = icmp sgt i32 %140, %141
  br i1 %142, label %143, label %169

143:                                              ; preds = %139
  %144 = load ptr, ptr %24, align 8, !tbaa !34
  %145 = getelementptr inbounds nuw %struct.stbhw_tile, ptr %144, i32 0, i32 0
  %146 = load i8, ptr %145, align 1, !tbaa !65
  %147 = load ptr, ptr %13, align 8, !tbaa !3
  store i8 %146, ptr %147, align 1, !tbaa !64
  %148 = load ptr, ptr %24, align 8, !tbaa !34
  %149 = getelementptr inbounds nuw %struct.stbhw_tile, ptr %148, i32 0, i32 1
  %150 = load i8, ptr %149, align 1, !tbaa !67
  %151 = load ptr, ptr %14, align 8, !tbaa !3
  store i8 %150, ptr %151, align 1, !tbaa !64
  %152 = load ptr, ptr %24, align 8, !tbaa !34
  %153 = getelementptr inbounds nuw %struct.stbhw_tile, ptr %152, i32 0, i32 2
  %154 = load i8, ptr %153, align 1, !tbaa !68
  %155 = load ptr, ptr %15, align 8, !tbaa !3
  store i8 %154, ptr %155, align 1, !tbaa !64
  %156 = load ptr, ptr %24, align 8, !tbaa !34
  %157 = getelementptr inbounds nuw %struct.stbhw_tile, ptr %156, i32 0, i32 3
  %158 = load i8, ptr %157, align 1, !tbaa !69
  %159 = load ptr, ptr %16, align 8, !tbaa !3
  store i8 %158, ptr %159, align 1, !tbaa !64
  %160 = load ptr, ptr %24, align 8, !tbaa !34
  %161 = getelementptr inbounds nuw %struct.stbhw_tile, ptr %160, i32 0, i32 4
  %162 = load i8, ptr %161, align 1, !tbaa !70
  %163 = load ptr, ptr %17, align 8, !tbaa !3
  store i8 %162, ptr %163, align 1, !tbaa !64
  %164 = load ptr, ptr %24, align 8, !tbaa !34
  %165 = getelementptr inbounds nuw %struct.stbhw_tile, ptr %164, i32 0, i32 5
  %166 = load i8, ptr %165, align 1, !tbaa !71
  %167 = load ptr, ptr %18, align 8, !tbaa !3
  store i8 %166, ptr %167, align 1, !tbaa !64
  %168 = load ptr, ptr %24, align 8, !tbaa !34
  store ptr %168, ptr %10, align 8
  store i32 1, ptr %25, align 4
  br label %171

169:                                              ; preds = %139
  br label %170

170:                                              ; preds = %169, %114, %100, %86, %72, %58, %44
  store i32 0, ptr %25, align 4
  br label %171

171:                                              ; preds = %170, %143
  call void @llvm.lifetime.end.p0(i64 8, ptr %24) #6
  %172 = load i32, ptr %25, align 4
  switch i32 %172, label %190 [
    i32 0, label %173
  ]

173:                                              ; preds = %171
  br label %174

174:                                              ; preds = %173
  %175 = load i32, ptr %20, align 4, !tbaa !10
  %176 = add nsw i32 %175, 1
  store i32 %176, ptr %20, align 4, !tbaa !10
  br label %30, !llvm.loop !72

177:                                              ; preds = %30
  %178 = load i32, ptr %21, align 4, !tbaa !10
  %179 = icmp eq i32 %178, 0
  br i1 %179, label %180, label %181

180:                                              ; preds = %177
  store ptr @.str.1, ptr @stbhw_error, align 8, !tbaa !3
  store ptr null, ptr %10, align 8
  store i32 1, ptr %25, align 4
  br label %190

181:                                              ; preds = %177
  %182 = call i32 @rand() #6
  %183 = ashr i32 %182, 4
  %184 = load i32, ptr %21, align 4, !tbaa !10
  %185 = srem i32 %183, %184
  store i32 %185, ptr %22, align 4, !tbaa !10
  br label %186

186:                                              ; preds = %181
  %187 = load i32, ptr %23, align 4, !tbaa !10
  %188 = add nsw i32 %187, 1
  store i32 %188, ptr %23, align 4, !tbaa !10
  br label %26, !llvm.loop !73

189:                                              ; preds = %26
  store ptr null, ptr %10, align 8
  store i32 1, ptr %25, align 4
  br label %190

190:                                              ; preds = %189, %180, %171
  call void @llvm.lifetime.end.p0(i64 4, ptr %23) #6
  call void @llvm.lifetime.end.p0(i64 4, ptr %22) #6
  call void @llvm.lifetime.end.p0(i64 4, ptr %21) #6
  call void @llvm.lifetime.end.p0(i64 4, ptr %20) #6
  %191 = load ptr, ptr %10, align 8
  ret ptr %191
}