; Function Attrs: nounwind uwtable
define ptr @stbhw__choose_tile(ptr noundef readonly captures(none) %0, i32 noundef %1, ptr noundef captures(none) %2, ptr noundef captures(none) %3, ptr noundef captures(none) %4, ptr noundef captures(none) %5, ptr noundef captures(none) %6, ptr noundef captures(none) %7, ptr noundef readonly captures(address_is_null) %8) local_unnamed_addr #2 {
  %10 = icmp sgt i32 %1, 0
  %.not = icmp eq ptr %8, null
  br i1 %10, label %.preheader.us.preheader, label %.split84.us

.preheader.us.preheader:                          ; preds = %9
  %wide.trip.count = zext nneg i32 %1 to i64
  %wide.trip.count97 = zext nneg i32 %1 to i64
  br label %.preheader.us

.preheader.us:                                    ; preds = %.preheader.us.preheader, %14
  %11 = phi i1 [ false, %14 ], [ true, %.preheader.us.preheader ]
  %.05072.us = phi i32 [ %17, %14 ], [ 1073741824, %.preheader.us.preheader ]
  %12 = load i8, ptr %2, align 1, !tbaa !58
  %13 = icmp slt i8 %12, 0
  br i1 %13, label %.lr.ph.split.us.us, label %.lr.ph.split.us82

14:                                               ; preds = %._crit_edge.us
  %15 = tail call i32 @rand() #15
  %16 = ashr i32 %15, 4
  %17 = srem i32 %16, %.us-phi71.us
  br i1 %11, label %.preheader.us, label %.loopexit, !llvm.loop !59

.lr.ph.split.us82:                                ; preds = %.preheader.us, %64
  %indvars.iv = phi i64 [ %indvars.iv.next, %64 ], [ 0, %.preheader.us ]
  %.05170.us75 = phi i32 [ %.354.ph.us79, %64 ], [ 0, %.preheader.us ]
  %18 = getelementptr inbounds nuw ptr, ptr %0, i64 %indvars.iv
  %19 = load ptr, ptr %18, align 8, !tbaa !60
  %20 = load i8, ptr %19, align 1, !tbaa !61
  %21 = icmp eq i8 %12, %20
  br i1 %21, label %22, label %64

22:                                               ; preds = %.lr.ph.split.us82
  %23 = load i8, ptr %3, align 1, !tbaa !58
  %24 = icmp slt i8 %23, 0
  br i1 %24, label %29, label %25

25:                                               ; preds = %22
  %26 = getelementptr inbounds nuw i8, ptr %19, i64 1
  %27 = load i8, ptr %26, align 1, !tbaa !63
  %28 = icmp eq i8 %23, %27
  br i1 %28, label %29, label %64

29:                                               ; preds = %25, %22
  %30 = load i8, ptr %4, align 1, !tbaa !58
  %31 = icmp slt i8 %30, 0
  br i1 %31, label %36, label %32

32:                                               ; preds = %29
  %33 = getelementptr inbounds nuw i8, ptr %19, i64 2
  %34 = load i8, ptr %33, align 1, !tbaa !64
  %35 = icmp eq i8 %30, %34
  br i1 %35, label %36, label %64

36:                                               ; preds = %32, %29
  %37 = load i8, ptr %5, align 1, !tbaa !58
  %38 = icmp slt i8 %37, 0
  br i1 %38, label %43, label %39

39:                                               ; preds = %36
  %40 = getelementptr inbounds nuw i8, ptr %19, i64 3
  %41 = load i8, ptr %40, align 1, !tbaa !65
  %42 = icmp eq i8 %37, %41
  br i1 %42, label %43, label %64

43:                                               ; preds = %39, %36
  %44 = load i8, ptr %6, align 1, !tbaa !58
  %45 = icmp slt i8 %44, 0
  br i1 %45, label %50, label %46

46:                                               ; preds = %43
  %47 = getelementptr inbounds nuw i8, ptr %19, i64 4
  %48 = load i8, ptr %47, align 1, !tbaa !66
  %49 = icmp eq i8 %44, %48
  br i1 %49, label %50, label %64

50:                                               ; preds = %46, %43
  %51 = load i8, ptr %7, align 1, !tbaa !58
  %52 = icmp slt i8 %51, 0
  br i1 %52, label %57, label %53

53:                                               ; preds = %50
  %54 = getelementptr inbounds nuw i8, ptr %19, i64 5
  %55 = load i8, ptr %54, align 1, !tbaa !67
  %56 = icmp eq i8 %51, %55
  br i1 %56, label %57, label %64

57:                                               ; preds = %53, %50
  br i1 %.not, label %62, label %58

58:                                               ; preds = %57
  %59 = load ptr, ptr %8, align 8, !tbaa !68
  %60 = getelementptr inbounds nuw i32, ptr %59, i64 %indvars.iv
  %61 = load i32, ptr %60, align 4, !tbaa !32
  br label %62

62:                                               ; preds = %58, %57
  %.pn.us77 = phi i32 [ %61, %58 ], [ 1, %57 ]
  %.253.us78 = add nsw i32 %.pn.us77, %.05170.us75
  %63 = icmp sgt i32 %.253.us78, %.05072.us
  br i1 %63, label %.split.us, label %64

64:                                               ; preds = %62, %53, %46, %39, %32, %25, %.lr.ph.split.us82
  %.354.ph.us79 = phi i32 [ %.05170.us75, %.lr.ph.split.us82 ], [ %.05170.us75, %25 ], [ %.05170.us75, %32 ], [ %.05170.us75, %39 ], [ %.05170.us75, %46 ], [ %.05170.us75, %53 ], [ %.253.us78, %62 ]
  %indvars.iv.next = add nuw nsw i64 %indvars.iv, 1
  %exitcond.not = icmp eq i64 %indvars.iv.next, %wide.trip.count
  br i1 %exitcond.not, label %._crit_edge.us, label %.lr.ph.split.us82, !llvm.loop !70

._crit_edge.us:                                   ; preds = %64, %110
  %.us-phi71.us = phi i32 [ %.354.ph.us.us, %110 ], [ %.354.ph.us79, %64 ]
  %65 = icmp eq i32 %.us-phi71.us, 0
  br i1 %65, label %.split84.us, label %14

.lr.ph.split.us.us:                               ; preds = %.preheader.us
  %66 = load i8, ptr %3, align 1, !tbaa !58
  %67 = icmp slt i8 %66, 0
  br label %68

68:                                               ; preds = %110, %.lr.ph.split.us.us
  %indvars.iv94 = phi i64 [ %indvars.iv.next95, %110 ], [ 0, %.lr.ph.split.us.us ]
  %.05170.us.us = phi i32 [ %.354.ph.us.us, %110 ], [ 0, %.lr.ph.split.us.us ]
  %69 = getelementptr inbounds nuw ptr, ptr %0, i64 %indvars.iv94
  %70 = load ptr, ptr %69, align 8, !tbaa !60
  br i1 %67, label %75, label %71

71:                                               ; preds = %68
  %72 = getelementptr inbounds nuw i8, ptr %70, i64 1
  %73 = load i8, ptr %72, align 1, !tbaa !63
  %74 = icmp eq i8 %66, %73
  br i1 %74, label %75, label %110

75:                                               ; preds = %71, %68
  %76 = load i8, ptr %4, align 1, !tbaa !58
  %77 = icmp slt i8 %76, 0
  br i1 %77, label %82, label %78

78:                                               ; preds = %75
  %79 = getelementptr inbounds nuw i8, ptr %70, i64 2
  %80 = load i8, ptr %79, align 1, !tbaa !64
  %81 = icmp eq i8 %76, %80
  br i1 %81, label %82, label %110

82:                                               ; preds = %78, %75
  %83 = load i8, ptr %5, align 1, !tbaa !58
  %84 = icmp slt i8 %83, 0
  br i1 %84, label %89, label %85

85:                                               ; preds = %82
  %86 = getelementptr inbounds nuw i8, ptr %70, i64 3
  %87 = load i8, ptr %86, align 1, !tbaa !65
  %88 = icmp eq i8 %83, %87
  br i1 %88, label %89, label %110

89:                                               ; preds = %85, %82
  %90 = load i8, ptr %6, align 1, !tbaa !58
  %91 = icmp slt i8 %90, 0
  br i1 %91, label %96, label %92

92:                                               ; preds = %89
  %93 = getelementptr inbounds nuw i8, ptr %70, i64 4
  %94 = load i8, ptr %93, align 1, !tbaa !66
  %95 = icmp eq i8 %90, %94
  br i1 %95, label %96, label %110

96:                                               ; preds = %92, %89
  %97 = load i8, ptr %7, align 1, !tbaa !58
  %98 = icmp slt i8 %97, 0
  br i1 %98, label %103, label %99

99:                                               ; preds = %96
  %100 = getelementptr inbounds nuw i8, ptr %70, i64 5
  %101 = load i8, ptr %100, align 1, !tbaa !67
  %102 = icmp eq i8 %97, %101
  br i1 %102, label %103, label %110

103:                                              ; preds = %99, %96
  br i1 %.not, label %108, label %104

104:                                              ; preds = %103
  %105 = load ptr, ptr %8, align 8, !tbaa !68
  %106 = getelementptr inbounds nuw i32, ptr %105, i64 %indvars.iv94
  %107 = load i32, ptr %106, align 4, !tbaa !32
  br label %108

108:                                              ; preds = %104, %103
  %.pn.us.us = phi i32 [ %107, %104 ], [ 1, %103 ]
  %.253.us.us = add nsw i32 %.pn.us.us, %.05170.us.us
  %109 = icmp sgt i32 %.253.us.us, %.05072.us
  br i1 %109, label %.split.us.loopexit, label %110

110:                                              ; preds = %108, %99, %92, %85, %78, %71
  %.354.ph.us.us = phi i32 [ %.05170.us.us, %71 ], [ %.05170.us.us, %78 ], [ %.05170.us.us, %85 ], [ %.05170.us.us, %92 ], [ %.05170.us.us, %99 ], [ %.253.us.us, %108 ]
  %indvars.iv.next95 = add nuw nsw i64 %indvars.iv94, 1
  %exitcond98.not = icmp eq i64 %indvars.iv.next95, %wide.trip.count97
  br i1 %exitcond98.not, label %._crit_edge.us, label %68, !llvm.loop !70

.split.us.loopexit:                               ; preds = %108
  %.pre = load i8, ptr %70, align 1, !tbaa !61
  br label %.split.us

.split.us:                                        ; preds = %62, %.split.us.loopexit
  %111 = phi i8 [ %.pre, %.split.us.loopexit ], [ %12, %62 ]
  %.us-phi = phi ptr [ %70, %.split.us.loopexit ], [ %19, %62 ]
  store i8 %111, ptr %2, align 1, !tbaa !58
  %112 = getelementptr inbounds nuw i8, ptr %.us-phi, i64 1
  %113 = load i8, ptr %112, align 1, !tbaa !63
  store i8 %113, ptr %3, align 1, !tbaa !58
  %114 = getelementptr inbounds nuw i8, ptr %.us-phi, i64 2
  %115 = load i8, ptr %114, align 1, !tbaa !64
  store i8 %115, ptr %4, align 1, !tbaa !58
  %116 = getelementptr inbounds nuw i8, ptr %.us-phi, i64 3
  %117 = load i8, ptr %116, align 1, !tbaa !65
  store i8 %117, ptr %5, align 1, !tbaa !58
  %118 = getelementptr inbounds nuw i8, ptr %.us-phi, i64 4
  %119 = load i8, ptr %118, align 1, !tbaa !66
  store i8 %119, ptr %6, align 1, !tbaa !58
  %120 = getelementptr inbounds nuw i8, ptr %.us-phi, i64 5
  %121 = load i8, ptr %120, align 1, !tbaa !67
  store i8 %121, ptr %7, align 1, !tbaa !58
  br label %.loopexit

.split84.us:                                      ; preds = %._crit_edge.us, %9
  store ptr @.str.1, ptr @stbhw_error, align 8, !tbaa !3
  br label %.loopexit

.loopexit:                                        ; preds = %14, %.split.us, %.split84.us
  %.3 = phi ptr [ %.us-phi, %.split.us ], [ null, %.split84.us ], [ null, %14 ]
  ret ptr %.3
}